#include <math.h>
#include <stdio.h>
#include <stdlib.h>
#include <string.h>

void main()
{
int a[100]={0},j=0;
int n,i,s=0;
scanf("%d",&n);
for(i=1;i<=n;i++)
{ if(i%7!=0)
    if(i%10!=7&&i/10!=7) 
       s=s+i*i;
}
printf("%d",s);
}
  