; ModuleID = '30/219.c'
source_filename = "30/219.c"
target datalayout = "e-m:e-p270:32:32-p271:32:32-p272:64:64-i64:64-f80:128-n8:16:32:64-S128"
target triple = "x86_64-pc-linux-gnu"

@.str = private unnamed_addr constant [3 x i8] c"%d\00", align 1

; Function Attrs: noinline nounwind uwtable
define dso_local void @main() #0 {
  %1 = alloca [100 x i32], align 16
  %2 = alloca i32, align 4
  %3 = alloca i32, align 4
  %4 = alloca i32, align 4
  %5 = alloca i32, align 4
  %6 = bitcast [100 x i32]* %1 to i8*
  call void @llvm.memset.p0i8.i64(i8* align 16 %6, i8 0, i64 400, i1 false)
  store i32 0, i32* %2, align 4
  store i32 0, i32* %5, align 4
  %7 = call i32 (i8*, ...) @__isoc99_scanf(i8* getelementptr inbounds ([3 x i8], [3 x i8]* @.str, i64 0, i64 0), i32* %3)
  store i32 1, i32* %4, align 4
  br label %8

8:                                                ; preds = %32, %0
  %9 = load i32, i32* %4, align 4
  %10 = load i32, i32* %3, align 4
  %11 = icmp sle i32 %9, %10
  br i1 %11, label %12, label %35

12:                                               ; preds = %8
  %13 = load i32, i32* %4, align 4
  %14 = srem i32 %13, 7
  %15 = icmp ne i32 %14, 0
  br i1 %15, label %16, label %31

16:                                               ; preds = %12
  %17 = load i32, i32* %4, align 4
  %18 = srem i32 %17, 10
  %19 = icmp ne i32 %18, 7
  br i1 %19, label %20, label %30

20:                                               ; preds = %16
  %21 = load i32, i32* %4, align 4
  %22 = sdiv i32 %21, 10
  %23 = icmp ne i32 %22, 7
  br i1 %23, label %24, label %30

24:                                               ; preds = %20
  %25 = load i32, i32* %5, align 4
  %26 = load i32, i32* %4, align 4
  %27 = load i32, i32* %4, align 4
  %28 = mul nsw i32 %26, %27
  %29 = add nsw i32 %25, %28
  store i32 %29, i32* %5, align 4
  br label %30

30:                                               ; preds = %24, %20, %16
  br label %31

31:                                               ; preds = %30, %12
  br label %32

32:                                               ; preds = %31
  %33 = load i32, i32* %4, align 4
  %34 = add nsw i32 %33, 1
  store i32 %34, i32* %4, align 4
  br label %8

35:                                               ; preds = %8
  %36 = load i32, i32* %5, align 4
  %37 = call i32 (i8*, ...) @printf(i8* getelementptr inbounds ([3 x i8], [3 x i8]* @.str, i64 0, i64 0), i32 %36)
  ret void
}

; Function Attrs: argmemonly nounwind willreturn
declare void @llvm.memset.p0i8.i64(i8* nocapture writeonly, i8, i64, i1 immarg) #1

declare dso_local i32 @__isoc99_scanf(i8*, ...) #2

declare dso_local i32 @printf(i8*, ...) #2


!llvm.module.flags = !{!0}
!llvm.ident = !{!1}

!0 = !{i32 1, !"wchar_size", i32 4}
!1 = !{!"clang version 10.0.0-4ubuntu1 "}
